target datalayout = "e-m:e-p270:32:32-p271:32:32-p272:64:64-i64:64-i128:128-f80:128-n8:16:32:64-S128"
target triple = "x86_64-pc-linux-gnu"

; Function Attrs: nounwind uwtable
define void @SUNDlsMat_densePOTRS(ptr noundef %0, i64 noundef %1, ptr noundef %2) #0 {
  %4 = alloca ptr, align 8
  %5 = alloca i64, align 8
  %6 = alloca ptr, align 8
  %7 = alloca ptr, align 8
  %8 = alloca ptr, align 8
  %9 = alloca i64, align 8
  %10 = alloca i64, align 8
  store ptr %0, ptr %4, align 8, !tbaa !18
  store i64 %1, ptr %5, align 8, !tbaa !19
  store ptr %2, ptr %6, align 8, !tbaa !20
  call void @llvm.lifetime.start.p0(i64 8, ptr %7) #4
  call void @llvm.lifetime.start.p0(i64 8, ptr %8) #4
  call void @llvm.lifetime.start.p0(i64 8, ptr %9) #4
  call void @llvm.lifetime.start.p0(i64 8, ptr %10) #4
  store i64 0, ptr %10, align 8, !tbaa !19
  br label %11

11:                                               ; preds = %55, %3
  %12 = load i64, ptr %10, align 8, !tbaa !19
  %13 = load i64, ptr %5, align 8, !tbaa !19
  %14 = sub nsw i64 %13, 1
  %15 = icmp slt i64 %12, %14
  br i1 %15, label %16, label %58

16:                                               ; preds = %11
  %17 = load ptr, ptr %4, align 8, !tbaa !18
  %18 = load i64, ptr %10, align 8, !tbaa !19
  %19 = getelementptr inbounds ptr, ptr %17, i64 %18
  %20 = load ptr, ptr %19, align 8, !tbaa !20
  store ptr %20, ptr %7, align 8, !tbaa !20
  %21 = load ptr, ptr %7, align 8, !tbaa !20
  %22 = load i64, ptr %10, align 8, !tbaa !19
  %23 = getelementptr inbounds double, ptr %21, i64 %22
  %24 = load double, ptr %23, align 8, !tbaa !21
  %25 = load ptr, ptr %6, align 8, !tbaa !20
  %26 = load i64, ptr %10, align 8, !tbaa !19
  %27 = getelementptr inbounds double, ptr %25, i64 %26
  %28 = load double, ptr %27, align 8, !tbaa !21
  %29 = fdiv double %28, %24
  store double %29, ptr %27, align 8, !tbaa !21
  %30 = load i64, ptr %10, align 8, !tbaa !19
  %31 = add nsw i64 %30, 1
  store i64 %31, ptr %9, align 8, !tbaa !19
  br label %32

32:                                               ; preds = %51, %16
  %33 = load i64, ptr %9, align 8, !tbaa !19
  %34 = load i64, ptr %5, align 8, !tbaa !19
  %35 = icmp slt i64 %33, %34
  br i1 %35, label %36, label %54

36:                                               ; preds = %32
  %37 = load ptr, ptr %6, align 8, !tbaa !20
  %38 = load i64, ptr %10, align 8, !tbaa !19
  %39 = getelementptr inbounds double, ptr %37, i64 %38
  %40 = load double, ptr %39, align 8, !tbaa !21
  %41 = load ptr, ptr %7, align 8, !tbaa !20
  %42 = load i64, ptr %9, align 8, !tbaa !19
  %43 = getelementptr inbounds double, ptr %41, i64 %42
  %44 = load double, ptr %43, align 8, !tbaa !21
  %45 = load ptr, ptr %6, align 8, !tbaa !20
  %46 = load i64, ptr %9, align 8, !tbaa !19
  %47 = getelementptr inbounds double, ptr %45, i64 %46
  %48 = load double, ptr %47, align 8, !tbaa !21
  %49 = fneg double %40
  %50 = call double @llvm.fmuladd.f64(double %49, double %44, double %48)
  store double %50, ptr %47, align 8, !tbaa !21
  br label %51

51:                                               ; preds = %36
  %52 = load i64, ptr %9, align 8, !tbaa !19
  %53 = add nsw i64 %52, 1
  store i64 %53, ptr %9, align 8, !tbaa !19
  br label %32

54:                                               ; preds = %32
  br label %55

55:                                               ; preds = %54
  %56 = load i64, ptr %10, align 8, !tbaa !19
  %57 = add nsw i64 %56, 1
  store i64 %57, ptr %10, align 8, !tbaa !19
  br label %11

58:                                               ; preds = %11
  %59 = load ptr, ptr %4, align 8, !tbaa !18
  %60 = load i64, ptr %5, align 8, !tbaa !19
  %61 = sub nsw i64 %60, 1
  %62 = getelementptr inbounds ptr, ptr %59, i64 %61
  %63 = load ptr, ptr %62, align 8, !tbaa !20
  store ptr %63, ptr %7, align 8, !tbaa !20
  %64 = load ptr, ptr %7, align 8, !tbaa !20
  %65 = load i64, ptr %5, align 8, !tbaa !19
  %66 = sub nsw i64 %65, 1
  %67 = getelementptr inbounds double, ptr %64, i64 %66
  %68 = load double, ptr %67, align 8, !tbaa !21
  %69 = load ptr, ptr %6, align 8, !tbaa !20
  %70 = load i64, ptr %5, align 8, !tbaa !19
  %71 = sub nsw i64 %70, 1
  %72 = getelementptr inbounds double, ptr %69, i64 %71
  %73 = load double, ptr %72, align 8, !tbaa !21
  %74 = fdiv double %73, %68
  store double %74, ptr %72, align 8, !tbaa !21
  %75 = load ptr, ptr %4, align 8, !tbaa !18
  %76 = load i64, ptr %5, align 8, !tbaa !19
  %77 = sub nsw i64 %76, 1
  %78 = getelementptr inbounds ptr, ptr %75, i64 %77
  %79 = load ptr, ptr %78, align 8, !tbaa !20
  store ptr %79, ptr %7, align 8, !tbaa !20
  %80 = load ptr, ptr %7, align 8, !tbaa !20
  %81 = load i64, ptr %5, align 8, !tbaa !19
  %82 = sub nsw i64 %81, 1
  %83 = getelementptr inbounds double, ptr %80, i64 %82
  %84 = load double, ptr %83, align 8, !tbaa !21
  %85 = load ptr, ptr %6, align 8, !tbaa !20
  %86 = load i64, ptr %5, align 8, !tbaa !19
  %87 = sub nsw i64 %86, 1
  %88 = getelementptr inbounds double, ptr %85, i64 %87
  %89 = load double, ptr %88, align 8, !tbaa !21
  %90 = fdiv double %89, %84
  store double %90, ptr %88, align 8, !tbaa !21
  %91 = load i64, ptr %5, align 8, !tbaa !19
  %92 = sub nsw i64 %91, 2
  store i64 %92, ptr %9, align 8, !tbaa !19
  br label %93

93:                                               ; preds = %135, %58
  %94 = load i64, ptr %9, align 8, !tbaa !19
  %95 = icmp sge i64 %94, 0
  br i1 %95, label %96, label %138

96:                                               ; preds = %93
  %97 = load ptr, ptr %4, align 8, !tbaa !18
  %98 = load i64, ptr %9, align 8, !tbaa !19
  %99 = getelementptr inbounds ptr, ptr %97, i64 %98
  %100 = load ptr, ptr %99, align 8, !tbaa !20
  store ptr %100, ptr %8, align 8, !tbaa !20
  %101 = load i64, ptr %9, align 8, !tbaa !19
  %102 = add nsw i64 %101, 1
  store i64 %102, ptr %10, align 8, !tbaa !19
  br label %103

103:                                              ; preds = %122, %96
  %104 = load i64, ptr %10, align 8, !tbaa !19
  %105 = load i64, ptr %5, align 8, !tbaa !19
  %106 = icmp slt i64 %104, %105
  br i1 %106, label %107, label %125

107:                                              ; preds = %103
  %108 = load ptr, ptr %8, align 8, !tbaa !20
  %109 = load i64, ptr %10, align 8, !tbaa !19
  %110 = getelementptr inbounds double, ptr %108, i64 %109
  %111 = load double, ptr %110, align 8, !tbaa !21
  %112 = load ptr, ptr %6, align 8, !tbaa !20
  %113 = load i64, ptr %10, align 8, !tbaa !19
  %114 = getelementptr inbounds double, ptr %112, i64 %113
  %115 = load double, ptr %114, align 8, !tbaa !21
  %116 = load ptr, ptr %6, align 8, !tbaa !20
  %117 = load i64, ptr %9, align 8, !tbaa !19
  %118 = getelementptr inbounds double, ptr %116, i64 %117
  %119 = load double, ptr %118, align 8, !tbaa !21
  %120 = fneg double %111
  %121 = call double @llvm.fmuladd.f64(double %120, double %115, double %119)
  store double %121, ptr %118, align 8, !tbaa !21
  br label %122

122:                                              ; preds = %107
  %123 = load i64, ptr %10, align 8, !tbaa !19
  %124 = add nsw i64 %123, 1
  store i64 %124, ptr %10, align 8, !tbaa !19
  br label %103

125:                                              ; preds = %103
  %126 = load ptr, ptr %8, align 8, !tbaa !20
  %127 = load i64, ptr %9, align 8, !tbaa !19
  %128 = getelementptr inbounds double, ptr %126, i64 %127
  %129 = load double, ptr %128, align 8, !tbaa !21
  %130 = load ptr, ptr %6, align 8, !tbaa !20
  %131 = load i64, ptr %9, align 8, !tbaa !19
  %132 = getelementptr inbounds double, ptr %130, i64 %131
  %133 = load double, ptr %132, align 8, !tbaa !21
  %134 = fdiv double %133, %129
  store double %134, ptr %132, align 8, !tbaa !21
  br label %135

135:                                              ; preds = %125
  %136 = load i64, ptr %9, align 8, !tbaa !19
  %137 = add nsw i64 %136, -1
  store i64 %137, ptr %9, align 8, !tbaa !19
  br label %93

138:                                              ; preds = %93
  call void @llvm.lifetime.end.p0(i64 8, ptr %10) #4
  call void @llvm.lifetime.end.p0(i64 8, ptr %9) #4
  call void @llvm.lifetime.end.p0(i64 8, ptr %8) #4
  call void @llvm.lifetime.end.p0(i64 8, ptr %7) #4
  ret void
}